target datalayout = "e-m:e-p270:32:32-p271:32:32-p272:64:64-i64:64-i128:128-f80:128-n8:16:32:64-S128"
target triple = "x86_64-pc-linux-gnu"

%"class.ozz::options::internal::Registrer" = type { %"class.ozz::options::TypedOption" }
%"class.ozz::options::TypedOption" = type { %"class.ozz::options::Option", ptr, ptr }
%"class.ozz::options::Option" = type { ptr, ptr, ptr, i8, i8, ptr }
%union.anon.0 = type { i16 }
%"class.ozz::log::Logger.base" = type <{ ptr, i8 }>
%"class.ozz::log::LogV" = type { %"class.ozz::log::Logger.base", [7 x i8] }
%"class.ozz::log::Logger" = type <{ ptr, i8, [7 x i8] }>
%"class.std::ios_base" = type { ptr, i64, i64, i32, i32, i32, ptr, %"struct.std::ios_base::_Words", [8 x %"struct.std::ios_base::_Words"], i32, ptr, %"class.std::locale" }
%"struct.std::ios_base::_Words" = type { ptr, i64 }
%"class.std::locale" = type { ptr }

@_ZL14OPTIONS_endian = internal global %"class.ozz::options::internal::Registrer" zeroinitializer, align 8
@.str.8 = private unnamed_addr constant [7 x i8] c"little\00", align 1
@.str.9 = private unnamed_addr constant [4 x i8] c"big\00", align 1
@.str.10 = private unnamed_addr constant [7 x i8] c"Little\00", align 1
@.str.11 = private unnamed_addr constant [4 x i8] c"Big\00", align 1
@.str.12 = private unnamed_addr constant [39 x i8] c" endian output binary format selected.\00", align 1
@__const._ZN3ozz19GetNativeEndiannessEv.u = private unnamed_addr constant %union.anon.0 { i16 1 }, align 2

; Function Attrs: inlinehint mustprogress nounwind uwtable
define linkonce_odr dso_local noundef i32 @_ZStorSt12_Ios_IostateS_(i32 noundef %0, i32 noundef %1) #6 comdat {
  %3 = alloca i32, align 4
  %4 = alloca i32, align 4
  store i32 %0, ptr %3, align 4, !tbaa !59
  store i32 %1, ptr %4, align 4, !tbaa !59
  %5 = load i32, ptr %3, align 4, !tbaa !59
  %6 = load i32, ptr %4, align 4, !tbaa !59
  %7 = or i32 %5, %6
  ret i32 %7
}

; Function Attrs: mustprogress nounwind uwtable
define available_externally noundef i32 @_ZNKSt9basic_iosIcSt11char_traitsIcEE7rdstateEv(ptr noundef nonnull align 8 dereferenceable(264) %0) #8 align 2 {
  %2 = alloca ptr, align 8
  store ptr %0, ptr %2, align 8, !tbaa !57
  %3 = load ptr, ptr %2, align 8
  %4 = getelementptr inbounds nuw %"class.std::ios_base", ptr %3, i32 0, i32 5
  %5 = load i32, ptr %4, align 8, !tbaa !61
  ret i32 %5
}

; Function Attrs: mustprogress nounwind uwtable
define linkonce_odr dso_local noundef i64 @_ZNSt11char_traitsIcE6lengthEPKc(ptr noundef %0) #8 comdat align 2 {
  %2 = alloca ptr, align 8
  store ptr %0, ptr %2, align 8, !tbaa !13
  %3 = load ptr, ptr %2, align 8, !tbaa !13
  %4 = call i64 @strlen(ptr noundef %3) #3
  ret i64 %4
}

; Function Attrs: mustprogress uwtable
define available_externally void @_ZNSt9basic_iosIcSt11char_traitsIcEE8setstateESt12_Ios_Iostate(ptr noundef nonnull align 8 dereferenceable(264) %0, i32 noundef %1) #4 align 2 {
  %3 = alloca ptr, align 8
  %4 = alloca i32, align 4
  store ptr %0, ptr %3, align 8, !tbaa !57
  store i32 %1, ptr %4, align 4, !tbaa !59
  %5 = load ptr, ptr %3, align 8
  %6 = call noundef i32 @_ZNKSt9basic_iosIcSt11char_traitsIcEE7rdstateEv(ptr noundef nonnull align 8 dereferenceable(264) %5)
  %7 = load i32, ptr %4, align 4, !tbaa !59
  %8 = call noundef i32 @_ZStorSt12_Ios_IostateS_(i32 noundef %6, i32 noundef %7)
  call void @_ZNSt9basic_iosIcSt11char_traitsIcEE5clearESt12_Ios_Iostate(ptr noundef nonnull align 8 dereferenceable(264) %5, i32 noundef %8)
  ret void
}

; Function Attrs: mustprogress uwtable
define available_externally noundef nonnull align 8 dereferenceable(8) ptr @_ZNSolsEPFRSoS_E(ptr noundef nonnull align 8 dereferenceable(8) %0, ptr noundef %1) #4 align 2 {
  %3 = alloca ptr, align 8
  %4 = alloca ptr, align 8
  store ptr %0, ptr %3, align 8, !tbaa !25
  store ptr %1, ptr %4, align 8, !tbaa !36
  %5 = load ptr, ptr %3, align 8
  %6 = load ptr, ptr %4, align 8, !tbaa !36
  %7 = call noundef nonnull align 8 dereferenceable(8) ptr %6(ptr noundef nonnull align 8 dereferenceable(8) %5)
  ret ptr %7
}

; Function Attrs: inlinehint mustprogress uwtable
define available_externally noundef nonnull align 8 dereferenceable(8) ptr @_ZStlsISt11char_traitsIcEERSt13basic_ostreamIcT_ES5_PKc(ptr noundef nonnull align 8 dereferenceable(8) %0, ptr noundef %1) #9 {
  %3 = alloca ptr, align 8
  %4 = alloca ptr, align 8
  store ptr %0, ptr %3, align 8, !tbaa !25
  store ptr %1, ptr %4, align 8, !tbaa !13
  %5 = load ptr, ptr %4, align 8, !tbaa !13
  %6 = icmp ne ptr %5, null
  br i1 %6, label %13, label %7

7:                                                ; preds = %2
  %8 = load ptr, ptr %3, align 8, !tbaa !25
  %9 = load ptr, ptr %8, align 8, !tbaa !27
  %10 = getelementptr i8, ptr %9, i64 -24
  %11 = load i64, ptr %10, align 8
  %12 = getelementptr inbounds i8, ptr %8, i64 %11
  call void @_ZNSt9basic_iosIcSt11char_traitsIcEE8setstateESt12_Ios_Iostate(ptr noundef nonnull align 8 dereferenceable(264) %12, i32 noundef 1)
  br label %19

13:                                               ; preds = %2
  %14 = load ptr, ptr %3, align 8, !tbaa !25
  %15 = load ptr, ptr %4, align 8, !tbaa !13
  %16 = load ptr, ptr %4, align 8, !tbaa !13
  %17 = call noundef i64 @_ZNSt11char_traitsIcE6lengthEPKc(ptr noundef %16)
  %18 = call noundef nonnull align 8 dereferenceable(8) ptr @_ZSt16__ostream_insertIcSt11char_traitsIcEERSt13basic_ostreamIT_T0_ES6_PKS3_l(ptr noundef nonnull align 8 dereferenceable(8) %14, ptr noundef %15, i64 noundef %17)
  br label %19

19:                                               ; preds = %13, %7
  %20 = load ptr, ptr %3, align 8, !tbaa !25
  ret ptr %20
}

; Function Attrs: mustprogress uwtable
define linkonce_odr dso_local noundef nonnull align 8 dereferenceable(8) ptr @_ZN3ozz3log6LoggerlsIPKcEERSoRKT_(ptr noundef nonnull align 8 dereferenceable(9) %0, ptr noundef nonnull align 8 dereferenceable(8) %1) #4 comdat align 2 {
  %3 = alloca ptr, align 8
  %4 = alloca ptr, align 8
  store ptr %0, ptr %3, align 8, !tbaa !29
  store ptr %1, ptr %4, align 8, !tbaa !31
  %5 = load ptr, ptr %3, align 8
  %6 = getelementptr inbounds nuw %"class.ozz::log::Logger", ptr %5, i32 0, i32 0
  %7 = load ptr, ptr %6, align 8, !tbaa !34
  %8 = load ptr, ptr %4, align 8, !tbaa !31
  %9 = load ptr, ptr %8, align 8, !tbaa !13
  %10 = call noundef nonnull align 8 dereferenceable(8) ptr @_ZStlsISt11char_traitsIcEERSt13basic_ostreamIcT_ES5_PKc(ptr noundef nonnull align 8 dereferenceable(8) %7, ptr noundef %9)
  ret ptr %10
}

; Function Attrs: mustprogress nounwind uwtable
define linkonce_odr dso_local noundef ptr @_ZNK3ozz7options11TypedOptionIPKcEcvS3_Ev(ptr noundef nonnull align 8 dereferenceable(56) %0) #8 comdat align 2 {
  %2 = alloca ptr, align 8
  store ptr %0, ptr %2, align 8, !tbaa !11
  %3 = load ptr, ptr %2, align 8
  %4 = getelementptr inbounds nuw %"class.ozz::options::TypedOption", ptr %3, i32 0, i32 2
  %5 = load ptr, ptr %4, align 8, !tbaa !22
  ret ptr %5
}

; Function Attrs: inlinehint mustprogress nounwind uwtable
define linkonce_odr dso_local noundef i32 @_ZN3ozz19GetNativeEndiannessEv() #6 comdat {
  %1 = alloca %union.anon.0, align 2
  call void @llvm.lifetime.start.p0(i64 2, ptr %1) #3
  call void @llvm.memcpy.p0.p0.i64(ptr align 2 %1, ptr align 2 @__const._ZN3ozz19GetNativeEndiannessEv.u, i64 2, i1 false)
  %2 = getelementptr inbounds [2 x i8], ptr %1, i64 0, i64 0
  %3 = load i8, ptr %2, align 2, !tbaa !21
  %4 = zext i8 %3 to i32
  call void @llvm.lifetime.end.p0(i64 2, ptr %1) #3
  ret i32 %4
}

; Function Attrs: mustprogress uwtable
define dso_local noundef i32 @_Z20InitializeEndiannessv() #4 personality ptr @__gxx_personality_v0 {
  %1 = alloca i32, align 4
  %2 = alloca %"class.ozz::log::LogV", align 8
  %3 = alloca ptr, align 8
  %4 = alloca ptr, align 8
  %5 = alloca i32, align 4
  call void @llvm.lifetime.start.p0(i64 4, ptr %1) #3
  %6 = call noundef i32 @_ZN3ozz19GetNativeEndiannessEv()
  store i32 %6, ptr %1, align 4, !tbaa !19
  %7 = call noundef ptr @_ZNK3ozz7options11TypedOptionIPKcEcvS3_Ev(ptr noundef nonnull align 8 dereferenceable(56) @_ZL14OPTIONS_endian)
  %8 = call i32 @strcmp(ptr noundef %7, ptr noundef @.str.8) #14
  %9 = icmp eq i32 %8, 0
  br i1 %9, label %10, label %11

10:                                               ; preds = %0
  store i32 1, ptr %1, align 4, !tbaa !19
  br label %17

11:                                               ; preds = %0
  %12 = call noundef ptr @_ZNK3ozz7options11TypedOptionIPKcEcvS3_Ev(ptr noundef nonnull align 8 dereferenceable(56) @_ZL14OPTIONS_endian)
  %13 = call i32 @strcmp(ptr noundef %12, ptr noundef @.str.9) #14
  %14 = icmp eq i32 %13, 0
  br i1 %14, label %15, label %16

15:                                               ; preds = %11
  store i32 0, ptr %1, align 4, !tbaa !19
  br label %16

16:                                               ; preds = %15, %11
  br label %17

17:                                               ; preds = %16, %10
  call void @llvm.lifetime.start.p0(i64 16, ptr %2) #3
  call void @_ZN3ozz3log4LogVC1Ev(ptr noundef nonnull align 8 dereferenceable(9) %2)
  call void @llvm.lifetime.start.p0(i64 8, ptr %3) #3
  %18 = load i32, ptr %1, align 4, !tbaa !19
  %19 = icmp eq i32 %18, 1
  %20 = select i1 %19, ptr @.str.10, ptr @.str.11
  store ptr %20, ptr %3, align 8, !tbaa !13
  %21 = invoke noundef nonnull align 8 dereferenceable(8) ptr @_ZN3ozz3log6LoggerlsIPKcEERSoRKT_(ptr noundef nonnull align 8 dereferenceable(9) %2, ptr noundef nonnull align 8 dereferenceable(8) %3)
          to label %22 unwind label %28

22:                                               ; preds = %17
  %23 = invoke noundef nonnull align 8 dereferenceable(8) ptr @_ZStlsISt11char_traitsIcEERSt13basic_ostreamIcT_ES5_PKc(ptr noundef nonnull align 8 dereferenceable(8) %21, ptr noundef @.str.12)
          to label %24 unwind label %28

24:                                               ; preds = %22
  %25 = invoke noundef nonnull align 8 dereferenceable(8) ptr @_ZNSolsEPFRSoS_E(ptr noundef nonnull align 8 dereferenceable(8) %23, ptr noundef @_ZSt4endlIcSt11char_traitsIcEERSt13basic_ostreamIT_T0_ES6_)
          to label %26 unwind label %28

26:                                               ; preds = %24
  call void @llvm.lifetime.end.p0(i64 8, ptr %3) #3
  call void @_ZN3ozz3log6LoggerD2Ev(ptr noundef nonnull align 8 dereferenceable(9) %2) #3
  call void @llvm.lifetime.end.p0(i64 16, ptr %2) #3
  %27 = load i32, ptr %1, align 4, !tbaa !19
  call void @llvm.lifetime.end.p0(i64 4, ptr %1) #3
  ret i32 %27

28:                                               ; preds = %24, %22, %17
  %29 = landingpad { ptr, i32 }
          cleanup
  %30 = extractvalue { ptr, i32 } %29, 0
  store ptr %30, ptr %4, align 8
  %31 = extractvalue { ptr, i32 } %29, 1
  store i32 %31, ptr %5, align 4
  call void @llvm.lifetime.end.p0(i64 8, ptr %3) #3
  call void @_ZN3ozz3log6LoggerD2Ev(ptr noundef nonnull align 8 dereferenceable(9) %2) #3
  call void @llvm.lifetime.end.p0(i64 16, ptr %2) #3
  call void @llvm.lifetime.end.p0(i64 4, ptr %1) #3
  br label %32

32:                                               ; preds = %28
  %33 = load ptr, ptr %4, align 8
  %34 = load i32, ptr %5, align 4
  %35 = insertvalue { ptr, i32 } poison, ptr %33, 0
  %36 = insertvalue { ptr, i32 } %35, i32 %34, 1
  resume { ptr, i32 } %36
}