; Function Attrs: mustprogress uwtable
define dso_local noundef range(i32 0, 2) i32 @_Z20InitializeEndiannessv() local_unnamed_addr #3 personality ptr @__gxx_personality_v0 {
  %1 = alloca %"class.ozz::log::LogV", align 8
  %2 = load ptr, ptr getelementptr inbounds nuw (i8, ptr @_ZL14OPTIONS_endian, i64 48), align 8, !tbaa !13
  %3 = tail call i32 @strcmp(ptr noundef nonnull dereferenceable(1) %2, ptr noundef nonnull dereferenceable(7) @.str.8) #16
  %4 = icmp eq i32 %3, 0
  br i1 %4, label %8, label %5

5:                                                ; preds = %0
  %6 = tail call i32 @strcmp(ptr noundef nonnull dereferenceable(1) %2, ptr noundef nonnull dereferenceable(4) @.str.9) #16
  %7 = icmp eq i32 %6, 0
  br i1 %7, label %9, label %8

8:                                                ; preds = %0, %5
  br label %9

9:                                                ; preds = %5, %8
  %.013 = phi i32 [ 1, %8 ], [ 0, %5 ]
  %10 = phi ptr [ @.str.10, %8 ], [ @.str.11, %5 ]
  call void @llvm.lifetime.start.p0(i64 16, ptr nonnull %1) #17
  call void @_ZN3ozz3log4LogVC1Ev(ptr noundef nonnull align 8 dereferenceable(9) %1)
  %11 = load ptr, ptr %1, align 8, !tbaa !9
  %12 = call noundef i64 @strlen(ptr noundef nonnull dereferenceable(1) %10) #17
  %13 = invoke noundef nonnull align 8 dereferenceable(8) ptr @_ZSt16__ostream_insertIcSt11char_traitsIcEERSt13basic_ostreamIT_T0_ES6_PKS3_l(ptr noundef nonnull align 8 dereferenceable(8) %11, ptr noundef nonnull %10, i64 noundef %12)
          to label %_ZN3ozz3log6LoggerlsIPKcEERSoRKT_.exit unwind label %34

_ZN3ozz3log6LoggerlsIPKcEERSoRKT_.exit:           ; preds = %9
  %14 = invoke noundef nonnull align 8 dereferenceable(8) ptr @_ZSt16__ostream_insertIcSt11char_traitsIcEERSt13basic_ostreamIT_T0_ES6_PKS3_l(ptr noundef nonnull align 8 dereferenceable(8) %11, ptr noundef nonnull @.str.12, i64 noundef 38)
          to label %_ZStlsISt11char_traitsIcEERSt13basic_ostreamIcT_ES5_PKc.exit unwind label %34

_ZStlsISt11char_traitsIcEERSt13basic_ostreamIcT_ES5_PKc.exit: ; preds = %_ZN3ozz3log6LoggerlsIPKcEERSoRKT_.exit
  %15 = load ptr, ptr %11, align 8, !tbaa !16
  %16 = getelementptr i8, ptr %15, i64 -24
  %17 = load i64, ptr %16, align 8
  %18 = getelementptr inbounds i8, ptr %11, i64 %17
  %19 = getelementptr inbounds nuw i8, ptr %18, i64 240
  %20 = load ptr, ptr %19, align 8, !tbaa !29
  %.not.i.i.i = icmp eq ptr %20, null
  br i1 %.not.i.i.i, label %21, label %_ZSt13__check_facetISt5ctypeIcEERKT_PS3_.exit.i.i

21:                                               ; preds = %_ZStlsISt11char_traitsIcEERSt13basic_ostreamIcT_ES5_PKc.exit
  invoke void @_ZSt16__throw_bad_castv() #18
          to label %.noexc6 unwind label %34

.noexc6:                                          ; preds = %21
  unreachable

_ZSt13__check_facetISt5ctypeIcEERKT_PS3_.exit.i.i: ; preds = %_ZStlsISt11char_traitsIcEERSt13basic_ostreamIcT_ES5_PKc.exit
  %22 = getelementptr inbounds nuw i8, ptr %20, i64 56
  %23 = load i8, ptr %22, align 8, !tbaa !35
  %.not.i1.i.i = icmp eq i8 %23, 0
  br i1 %.not.i1.i.i, label %27, label %24

24:                                               ; preds = %_ZSt13__check_facetISt5ctypeIcEERKT_PS3_.exit.i.i
  %25 = getelementptr inbounds nuw i8, ptr %20, i64 67
  %26 = load i8, ptr %25, align 1, !tbaa !41
  br label %_ZNKSt9basic_iosIcSt11char_traitsIcEE5widenEc.exit.i

27:                                               ; preds = %_ZSt13__check_facetISt5ctypeIcEERKT_PS3_.exit.i.i
  invoke void @_ZNKSt5ctypeIcE13_M_widen_initEv(ptr noundef nonnull align 8 dereferenceable(570) %20)
          to label %.noexc7 unwind label %34

.noexc7:                                          ; preds = %27
  %28 = load ptr, ptr %20, align 8, !tbaa !16
  %29 = getelementptr inbounds nuw i8, ptr %28, i64 48
  %30 = load ptr, ptr %29, align 8
  %31 = invoke noundef signext i8 %30(ptr noundef nonnull align 8 dereferenceable(570) %20, i8 noundef signext 10)
          to label %_ZNKSt9basic_iosIcSt11char_traitsIcEE5widenEc.exit.i unwind label %34

_ZNKSt9basic_iosIcSt11char_traitsIcEE5widenEc.exit.i: ; preds = %.noexc7, %24
  %.0.i.i.i = phi i8 [ %26, %24 ], [ %31, %.noexc7 ]
  %32 = invoke noundef nonnull align 8 dereferenceable(8) ptr @_ZNSo3putEc(ptr noundef nonnull align 8 dereferenceable(8) %11, i8 noundef signext %.0.i.i.i)
          to label %.noexc9 unwind label %34

.noexc9:                                          ; preds = %_ZNKSt9basic_iosIcSt11char_traitsIcEE5widenEc.exit.i
  %33 = invoke noundef nonnull align 8 dereferenceable(8) ptr @_ZNSo5flushEv(ptr noundef nonnull align 8 dereferenceable(8) %32)
          to label %_ZNSolsEPFRSoS_E.exit unwind label %34

_ZNSolsEPFRSoS_E.exit:                            ; preds = %.noexc9
  call void @_ZN3ozz3log6LoggerD2Ev(ptr noundef nonnull align 8 dereferenceable(9) %1) #17
  call void @llvm.lifetime.end.p0(i64 16, ptr nonnull %1) #17
  ret i32 %.013

34:                                               ; preds = %.noexc9, %_ZNKSt9basic_iosIcSt11char_traitsIcEE5widenEc.exit.i, %.noexc7, %27, %21, %_ZN3ozz3log6LoggerlsIPKcEERSoRKT_.exit, %9
  %35 = landingpad { ptr, i32 }
          cleanup
  call void @_ZN3ozz3log6LoggerD2Ev(ptr noundef nonnull align 8 dereferenceable(9) %1) #17
  call void @llvm.lifetime.end.p0(i64 16, ptr nonnull %1) #17
  resume { ptr, i32 } %35
}